(lp0
ccopy_reg
_reconstructor
p1
(c__main__
ColorStreamSource
p2
c__builtin__
object
p3
Ntp4
Rp5
(dp6
S'color'
p7
g1
(c__main__
Color
p8
g3
Ntp9
Rp10
(dp11
S'r'
p12
I0
sS'b'
p13
I0
sS'g'
p14
F8.0
sbsS'glcolor'
p15
(F0.0
F1.0
F0.0
I1
tp16
sS'active'
p17
I01
sS'sink'
p18
g1
(c__main__
Wall
p19
g3
Ntp20
Rp21
(dp22
g7
g1
(g8
g3
Ntp23
Rp24
(dp25
g12
I0
sg13
I0
sg14
I0
sbsg15
(F0.5
F0.5
F0.5
I1
tp26
sS'sources'
p27
(lp28
sS'y'
p29
I160
sS'x'
p30
I320
sS'glborder_color'
p31
(I1
I1
I1
F0.5
tp32
sbsS'output_direction'
p33
g1
(c__main__
Vector2d
p34
g3
Ntp35
Rp36
(dp37
g29
I1
sg30
I0
sbsg29
I0
sg30
I320
sbag1
(g2
g3
Ntp38
Rp39
(dp40
g7
g1
(g8
g3
Ntp41
Rp42
(dp43
g12
I0
sg13
F8.0
sg14
I0
sbsg15
(F0.0
F0.0
F1.0
I1
tp44
sg17
I01
sg18
Nsg33
g36
sg29
I0
sg30
I480
sbag1
(c__main__
Target
p45
g3
Ntp46
Rp47
(dp48
g7
g1
(g8
g3
Ntp49
Rp50
(dp51
g12
I0
sg13
I0
sg14
I0
sbsg15
(F0.0
F0.0
F0.0
I1
tp52
sg27
(lp53
sg29
I240
sg30
I320
sS'target_color'
p54
g1
(g8
g3
Ntp55
Rp56
(dp57
g12
I0
sg13
F4.0
sg14
F2.0
sbsg17
I01
sg31
(F0.0
F0.25
F0.5
I1
tp58
sbag21
ag1
(g19
g3
Ntp59
Rp60
(dp61
g7
g1
(g8
g3
Ntp62
Rp63
(dp64
g12
I0
sg13
I0
sg14
I0
sbsg15
g26
sg27
(lp65
sg29
I160
sg30
I340
sg31
g32
sbag1
(g19
g3
Ntp66
Rp67
(dp68
g7
g1
(g8
g3
Ntp69
Rp70
(dp71
g12
I0
sg13
I0
sg14
I0
sbsg15
g26
sg27
(lp72
sg29
I160
sg30
I360
sg31
g32
sbag1
(g19
g3
Ntp73
Rp74
(dp75
g7
g1
(g8
g3
Ntp76
Rp77
(dp78
g12
I0
sg13
I0
sg14
I0
sbsg15
g26
sg27
(lp79
sg29
I160
sg30
I380
sg31
g32
sbag1
(g19
g3
Ntp80
Rp81
(dp82
g7
g1
(g8
g3
Ntp83
Rp84
(dp85
g12
I0
sg13
I0
sg14
I0
sbsg15
g26
sg27
(lp86
sg29
I160
sg30
I300
sg31
g32
sbag1
(g19
g3
Ntp87
Rp88
(dp89
g7
g1
(g8
g3
Ntp90
Rp91
(dp92
g12
I0
sg13
I0
sg14
I0
sbsg15
g26
sg27
(lp93
sg29
I160
sg30
I280
sg31
g32
sbag1
(g19
g3
Ntp94
Rp95
(dp96
g7
g1
(g8
g3
Ntp97
Rp98
(dp99
g12
I0
sg13
I0
sg14
I0
sbsg15
g26
sg27
(lp100
sg29
I160
sg30
I260
sg31
g32
sbag1
(g19
g3
Ntp101
Rp102
(dp103
g7
g1
(g8
g3
Ntp104
Rp105
(dp106
g12
I0
sg13
I0
sg14
I0
sbsg15
g26
sg27
(lp107
sg29
I160
sg30
I240
sg31
g32
sbag1
(g19
g3
Ntp108
Rp109
(dp110
g7
g1
(g8
g3
Ntp111
Rp112
(dp113
g12
I0
sg13
I0
sg14
I0
sbsg15
g26
sg27
(lp114
sg29
I160
sg30
I220
sg31
g32
sbag1
(g19
g3
Ntp115
Rp116
(dp117
g7
g1
(g8
g3
Ntp118
Rp119
(dp120
g12
I0
sg13
I0
sg14
I0
sbsg15
g26
sg27
(lp121
sg29
I160
sg30
I200
sg31
g32
sbag1
(g19
g3
Ntp122
Rp123
(dp124
g7
g1
(g8
g3
Ntp125
Rp126
(dp127
g12
I0
sg13
I0
sg14
I0
sbsg15
g26
sg27
(lp128
sg29
I160
sg30
I180
sg31
g32
sbag1
(g19
g3
Ntp129
Rp130
(dp131
g7
g1
(g8
g3
Ntp132
Rp133
(dp134
g12
I0
sg13
I0
sg14
I0
sbsg15
g26
sg27
(lp135
sg29
I160
sg30
I160
sg31
g32
sbag1
(g19
g3
Ntp136
Rp137
(dp138
g7
g1
(g8
g3
Ntp139
Rp140
(dp141
g12
I0
sg13
I0
sg14
I0
sbsg15
g26
sg27
(lp142
sg29
I160
sg30
I140
sg31
g32
sbag1
(g19
g3
Ntp143
Rp144
(dp145
g7
g1
(g8
g3
Ntp146
Rp147
(dp148
g12
I0
sg13
I0
sg14
I0
sbsg15
g26
sg27
(lp149
sg29
I160
sg30
I120
sg31
g32
sbag1
(g19
g3
Ntp150
Rp151
(dp152
g7
g1
(g8
g3
Ntp153
Rp154
(dp155
g12
I0
sg13
I0
sg14
I0
sbsg15
g26
sg27
(lp156
sg29
I160
sg30
I100
sg31
g32
sbag1
(g19
g3
Ntp157
Rp158
(dp159
g7
g1
(g8
g3
Ntp160
Rp161
(dp162
g12
I0
sg13
I0
sg14
I0
sbsg15
g26
sg27
(lp163
sg29
I160
sg30
I80
sg31
g32
sbag1
(g19
g3
Ntp164
Rp165
(dp166
g7
g1
(g8
g3
Ntp167
Rp168
(dp169
g12
I0
sg13
I0
sg14
I0
sbsg15
g26
sg27
(lp170
sg29
I160
sg30
I60
sg31
g32
sbag1
(g19
g3
Ntp171
Rp172
(dp173
g7
g1
(g8
g3
Ntp174
Rp175
(dp176
g12
I0
sg13
I0
sg14
I0
sbsg15
g26
sg27
(lp177
sg29
I160
sg30
I40
sg31
g32
sbag1
(g19
g3
Ntp178
Rp179
(dp180
g7
g1
(g8
g3
Ntp181
Rp182
(dp183
g12
I0
sg13
I0
sg14
I0
sbsg15
g26
sg27
(lp184
sg29
I160
sg30
I20
sg31
g32
sbag1
(g19
g3
Ntp185
Rp186
(dp187
g7
g1
(g8
g3
Ntp188
Rp189
(dp190
g12
I0
sg13
I0
sg14
I0
sbsg15
g26
sg27
(lp191
sg29
I160
sg30
I0
sg31
g32
sbag1
(g19
g3
Ntp192
Rp193
(dp194
g7
g1
(g8
g3
Ntp195
Rp196
(dp197
g12
I0
sg13
I0
sg14
I0
sbsg15
g26
sg27
(lp198
sg29
I160
sg30
I400
sg31
g32
sbag1
(g19
g3
Ntp199
Rp200
(dp201
g7
g1
(g8
g3
Ntp202
Rp203
(dp204
g12
I0
sg13
I0
sg14
I0
sbsg15
g26
sg27
(lp205
sg29
I160
sg30
I420
sg31
g32
sbag1
(g19
g3
Ntp206
Rp207
(dp208
g7
g1
(g8
g3
Ntp209
Rp210
(dp211
g12
I0
sg13
I0
sg14
I0
sbsg15
g26
sg27
(lp212
sg29
I160
sg30
I440
sg31
g32
sbag1
(g19
g3
Ntp213
Rp214
(dp215
g7
g1
(g8
g3
Ntp216
Rp217
(dp218
g12
I0
sg13
I0
sg14
I0
sbsg15
g26
sg27
(lp219
sg29
I160
sg30
I460
sg31
g32
sbag1
(g19
g3
Ntp220
Rp221
(dp222
g7
g1
(g8
g3
Ntp223
Rp224
(dp225
g12
I0
sg13
I0
sg14
I0
sbsg15
g26
sg27
(lp226
sg29
I160
sg30
I500
sg31
g32
sbag1
(g19
g3
Ntp227
Rp228
(dp229
g7
g1
(g8
g3
Ntp230
Rp231
(dp232
g12
I0
sg13
I0
sg14
I0
sbsg15
g26
sg27
(lp233
sg29
I160
sg30
I520
sg31
g32
sbag1
(g19
g3
Ntp234
Rp235
(dp236
g7
g1
(g8
g3
Ntp237
Rp238
(dp239
g12
I0
sg13
I0
sg14
I0
sbsg15
g26
sg27
(lp240
sg29
I160
sg30
I540
sg31
g32
sbag1
(g19
g3
Ntp241
Rp242
(dp243
g7
g1
(g8
g3
Ntp244
Rp245
(dp246
g12
I0
sg13
I0
sg14
I0
sbsg15
g26
sg27
(lp247
sg29
I160
sg30
I560
sg31
g32
sbag1
(g19
g3
Ntp248
Rp249
(dp250
g7
g1
(g8
g3
Ntp251
Rp252
(dp253
g12
I0
sg13
I0
sg14
I0
sbsg15
g26
sg27
(lp254
sg29
I160
sg30
I580
sg31
g32
sbag1
(g19
g3
Ntp255
Rp256
(dp257
g7
g1
(g8
g3
Ntp258
Rp259
(dp260
g12
I0
sg13
I0
sg14
I0
sbsg15
g26
sg27
(lp261
sg29
I160
sg30
I600
sg31
g32
sbag1
(g19
g3
Ntp262
Rp263
(dp264
g7
g1
(g8
g3
Ntp265
Rp266
(dp267
g12
I0
sg13
I0
sg14
I0
sbsg15
g26
sg27
(lp268
sg29
I160
sg30
I620
sg31
g32
sbag1
(g19
g3
Ntp269
Rp270
(dp271
g7
g1
(g8
g3
Ntp272
Rp273
(dp274
g12
I0
sg13
I0
sg14
I0
sbsg15
g26
sg27
(lp275
sg29
I220
sg30
I360
sg31
g32
sbag1
(g19
g3
Ntp276
Rp277
(dp278
g7
g1
(g8
g3
Ntp279
Rp280
(dp281
g12
I0
sg13
I0
sg14
I0
sbsg15
g26
sg27
(lp282
sg29
I240
sg30
I360
sg31
g32
sbag1
(g19
g3
Ntp283
Rp284
(dp285
g7
g1
(g8
g3
Ntp286
Rp287
(dp288
g12
I0
sg13
I0
sg14
I0
sbsg15
g26
sg27
(lp289
sg29
I260
sg30
I360
sg31
g32
sbag1
(g19
g3
Ntp290
Rp291
(dp292
g7
g1
(g8
g3
Ntp293
Rp294
(dp295
g12
I0
sg13
I0
sg14
I0
sbsg15
g26
sg27
(lp296
sg29
I280
sg30
I360
sg31
g32
sbag1
(g19
g3
Ntp297
Rp298
(dp299
g7
g1
(g8
g3
Ntp300
Rp301
(dp302
g12
I0
sg13
I0
sg14
I0
sbsg15
g26
sg27
(lp303
sg29
I280
sg30
I340
sg31
g32
sbag1
(g19
g3
Ntp304
Rp305
(dp306
g7
g1
(g8
g3
Ntp307
Rp308
(dp309
g12
I0
sg13
I0
sg14
I0
sbsg15
g26
sg27
(lp310
sg29
I280
sg30
I320
sg31
g32
sbag1
(g19
g3
Ntp311
Rp312
(dp313
g7
g1
(g8
g3
Ntp314
Rp315
(dp316
g12
I0
sg13
I0
sg14
I0
sbsg15
g26
sg27
(lp317
sg29
I280
sg30
I300
sg31
g32
sbag1
(g19
g3
Ntp318
Rp319
(dp320
g7
g1
(g8
g3
Ntp321
Rp322
(dp323
g12
I0
sg13
I0
sg14
I0
sbsg15
g26
sg27
(lp324
sg29
I280
sg30
I280
sg31
g32
sbag1
(g19
g3
Ntp325
Rp326
(dp327
g7
g1
(g8
g3
Ntp328
Rp329
(dp330
g12
I0
sg13
I0
sg14
I0
sbsg15
g26
sg27
(lp331
sg29
I260
sg30
I280
sg31
g32
sbag1
(g19
g3
Ntp332
Rp333
(dp334
g7
g1
(g8
g3
Ntp335
Rp336
(dp337
g12
I0
sg13
I0
sg14
I0
sbsg15
g26
sg27
(lp338
sg29
I240
sg30
I280
sg31
g32
sbag1
(g19
g3
Ntp339
Rp340
(dp341
g7
g1
(g8
g3
Ntp342
Rp343
(dp344
g12
I0
sg13
I0
sg14
I0
sbsg15
g26
sg27
(lp345
sg29
I220
sg30
I280
sg31
g32
sbag1
(g19
g3
Ntp346
Rp347
(dp348
g7
g1
(g8
g3
Ntp349
Rp350
(dp351
g12
I0
sg13
I0
sg14
I0
sbsg15
g26
sg27
(lp352
sg29
I200
sg30
I280
sg31
g32
sbag1
(g19
g3
Ntp353
Rp354
(dp355
g7
g1
(g8
g3
Ntp356
Rp357
(dp358
g12
I0
sg13
I0
sg14
I0
sbsg15
g26
sg27
(lp359
sg29
I200
sg30
I300
sg31
g32
sbag1
(g19
g3
Ntp360
Rp361
(dp362
g7
g1
(g8
g3
Ntp363
Rp364
(dp365
g12
I0
sg13
I0
sg14
I0
sbsg15
g26
sg27
(lp366
sg29
I200
sg30
I340
sg31
g32
sbag1
(g19
g3
Ntp367
Rp368
(dp369
g7
g1
(g8
g3
Ntp370
Rp371
(dp372
g12
I0
sg13
I0
sg14
I0
sbsg15
g26
sg27
(lp373
sg29
I200
sg30
I360
sg31
g32
sba.