(lp0
ccopy_reg
_reconstructor
p1
(c__main__
ColorStreamSource
p2
c__builtin__
object
p3
Ntp4
Rp5
(dp6
S'color'
p7
g1
(c__main__
Color
p8
g3
Ntp9
Rp10
(dp11
S'r'
p12
F8.0
sS'b'
p13
I0
sS'g'
p14
I0
sbsS'glcolor'
p15
(F1.0
F0.0
F0.0
I1
tp16
sS'active'
p17
I01
sS'sink'
p18
g1
(c__main__
Wall
p19
g3
Ntp20
Rp21
(dp22
g7
g1
(g8
g3
Ntp23
Rp24
(dp25
g12
I0
sg13
I0
sg14
I0
sbsg15
(F0.5
F0.5
F0.5
I1
tp26
sS'sources'
p27
(lp28
sS'y'
p29
I280
sS'x'
p30
I160
sS'glborder_color'
p31
(I1
I1
I1
F0.5
tp32
sbsS'output_direction'
p33
g1
(c__main__
Vector2d
p34
g3
Ntp35
Rp36
(dp37
g29
I1
sg30
I0
sbsg29
I0
sg30
I160
sbag1
(g2
g3
Ntp38
Rp39
(dp40
g7
g1
(g8
g3
Ntp41
Rp42
(dp43
g12
I0
sg13
I0
sg14
F8.0
sbsg15
(F0.0
F1.0
F0.0
I1
tp44
sg17
I01
sg18
g1
(c__main__
Wigit
p45
g3
Ntp46
Rp47
(dp48
g27
(lp49
g39
asg7
g1
(g8
g3
Ntp50
Rp51
(dp52
g12
I0
sg13
I0
sg14
F4.0
sbsg15
(F0.0
F0.5
F0.0
I1
tp53
sg17
I01
sg18
g1
(c__main__
Target
p54
g3
Ntp55
Rp56
(dp57
g7
g1
(g8
g3
Ntp58
Rp59
(dp60
g12
I0
sg13
I0
sg14
F4.0
sbsg15
(F0.0
F0.5
F0.0
I1
tp61
sg27
(lp62
g47
asg29
I240
sg30
I320
sS'target_color'
p63
g1
(g8
g3
Ntp64
Rp65
(dp66
g12
F8.0
sg13
F4.0
sg14
F4.0
sbsg17
I01
sg31
(F1.0
F0.5
F0.5
I1
tp67
sbsg33
g36
sg29
I100
sg30
I320
sg31
g32
sbsg33
g36
sg29
I0
sg30
I320
sbag1
(g2
g3
Ntp68
Rp69
(dp70
g7
g1
(g8
g3
Ntp71
Rp72
(dp73
g12
I0
sg13
F8.0
sg14
I0
sbsg15
(F0.0
F0.0
F1.0
I1
tp74
sg17
I01
sg18
Nsg33
g36
sg29
I0
sg30
I480
sbag56
ag47
ag1
(g19
g3
Ntp75
Rp76
(dp77
g7
g1
(g8
g3
Ntp78
Rp79
(dp80
g12
I0
sg13
I0
sg14
I0
sbsg15
g26
sg27
(lp81
sg29
I0
sg30
I420
sg31
g32
sbag1
(g19
g3
Ntp82
Rp83
(dp84
g7
g1
(g8
g3
Ntp85
Rp86
(dp87
g12
I0
sg13
I0
sg14
I0
sbsg15
g26
sg27
(lp88
sg29
I20
sg30
I420
sg31
g32
sbag1
(g19
g3
Ntp89
Rp90
(dp91
g7
g1
(g8
g3
Ntp92
Rp93
(dp94
g12
I0
sg13
I0
sg14
I0
sbsg15
g26
sg27
(lp95
sg29
I40
sg30
I420
sg31
g32
sbag1
(g19
g3
Ntp96
Rp97
(dp98
g7
g1
(g8
g3
Ntp99
Rp100
(dp101
g12
I0
sg13
I0
sg14
I0
sbsg15
g26
sg27
(lp102
sg29
I60
sg30
I420
sg31
g32
sbag1
(g19
g3
Ntp103
Rp104
(dp105
g7
g1
(g8
g3
Ntp106
Rp107
(dp108
g12
I0
sg13
I0
sg14
I0
sbsg15
g26
sg27
(lp109
sg29
I80
sg30
I420
sg31
g32
sbag1
(g19
g3
Ntp110
Rp111
(dp112
g7
g1
(g8
g3
Ntp113
Rp114
(dp115
g12
I0
sg13
I0
sg14
I0
sbsg15
g26
sg27
(lp116
sg29
I100
sg30
I420
sg31
g32
sbag1
(g19
g3
Ntp117
Rp118
(dp119
g7
g1
(g8
g3
Ntp120
Rp121
(dp122
g12
I0
sg13
I0
sg14
I0
sbsg15
g26
sg27
(lp123
sg29
I120
sg30
I420
sg31
g32
sbag1
(g19
g3
Ntp124
Rp125
(dp126
g7
g1
(g8
g3
Ntp127
Rp128
(dp129
g12
I0
sg13
I0
sg14
I0
sbsg15
g26
sg27
(lp130
sg29
I160
sg30
I420
sg31
g32
sbag1
(g19
g3
Ntp131
Rp132
(dp133
g7
g1
(g8
g3
Ntp134
Rp135
(dp136
g12
I0
sg13
I0
sg14
I0
sbsg15
g26
sg27
(lp137
sg29
I140
sg30
I420
sg31
g32
sbag1
(g19
g3
Ntp138
Rp139
(dp140
g7
g1
(g8
g3
Ntp141
Rp142
(dp143
g12
I0
sg13
I0
sg14
I0
sbsg15
g26
sg27
(lp144
sg29
I180
sg30
I420
sg31
g32
sbag1
(g19
g3
Ntp145
Rp146
(dp147
g7
g1
(g8
g3
Ntp148
Rp149
(dp150
g12
I0
sg13
I0
sg14
I0
sbsg15
g26
sg27
(lp151
sg29
I200
sg30
I420
sg31
g32
sbag1
(g19
g3
Ntp152
Rp153
(dp154
g7
g1
(g8
g3
Ntp155
Rp156
(dp157
g12
I0
sg13
I0
sg14
I0
sbsg15
g26
sg27
(lp158
sg29
I240
sg30
I420
sg31
g32
sbag1
(g19
g3
Ntp159
Rp160
(dp161
g7
g1
(g8
g3
Ntp162
Rp163
(dp164
g12
I0
sg13
I0
sg14
I0
sbsg15
g26
sg27
(lp165
sg29
I220
sg30
I420
sg31
g32
sbag1
(g19
g3
Ntp166
Rp167
(dp168
g7
g1
(g8
g3
Ntp169
Rp170
(dp171
g12
I0
sg13
I0
sg14
I0
sbsg15
g26
sg27
(lp172
sg29
I260
sg30
I420
sg31
g32
sbag1
(g19
g3
Ntp173
Rp174
(dp175
g7
g1
(g8
g3
Ntp176
Rp177
(dp178
g12
I0
sg13
I0
sg14
I0
sbsg15
g26
sg27
(lp179
sg29
I280
sg30
I420
sg31
g32
sbag1
(g19
g3
Ntp180
Rp181
(dp182
g7
g1
(g8
g3
Ntp183
Rp184
(dp185
g12
I0
sg13
I0
sg14
I0
sbsg15
g26
sg27
(lp186
sg29
I300
sg30
I420
sg31
g32
sbag1
(g19
g3
Ntp187
Rp188
(dp189
g7
g1
(g8
g3
Ntp190
Rp191
(dp192
g12
I0
sg13
I0
sg14
I0
sbsg15
g26
sg27
(lp193
sg29
I320
sg30
I420
sg31
g32
sbag1
(g19
g3
Ntp194
Rp195
(dp196
g7
g1
(g8
g3
Ntp197
Rp198
(dp199
g12
I0
sg13
I0
sg14
I0
sbsg15
g26
sg27
(lp200
sg29
I360
sg30
I420
sg31
g32
sbag1
(g19
g3
Ntp201
Rp202
(dp203
g7
g1
(g8
g3
Ntp204
Rp205
(dp206
g12
I0
sg13
I0
sg14
I0
sbsg15
g26
sg27
(lp207
sg29
I340
sg30
I420
sg31
g32
sbag1
(g19
g3
Ntp208
Rp209
(dp210
g7
g1
(g8
g3
Ntp211
Rp212
(dp213
g12
I0
sg13
I0
sg14
I0
sbsg15
g26
sg27
(lp214
sg29
I400
sg30
I420
sg31
g32
sbag1
(g19
g3
Ntp215
Rp216
(dp217
g7
g1
(g8
g3
Ntp218
Rp219
(dp220
g12
I0
sg13
I0
sg14
I0
sbsg15
g26
sg27
(lp221
sg29
I420
sg30
I420
sg31
g32
sbag1
(g19
g3
Ntp222
Rp223
(dp224
g7
g1
(g8
g3
Ntp225
Rp226
(dp227
g12
I0
sg13
I0
sg14
I0
sbsg15
g26
sg27
(lp228
sg29
I440
sg30
I420
sg31
g32
sbag1
(g19
g3
Ntp229
Rp230
(dp231
g7
g1
(g8
g3
Ntp232
Rp233
(dp234
g12
I0
sg13
I0
sg14
I0
sbsg15
g26
sg27
(lp235
sg29
I460
sg30
I420
sg31
g32
sbag1
(g19
g3
Ntp236
Rp237
(dp238
g7
g1
(g8
g3
Ntp239
Rp240
(dp241
g12
I0
sg13
I0
sg14
I0
sbsg15
g26
sg27
(lp242
sg29
I280
sg30
I400
sg31
g32
sbag1
(g19
g3
Ntp243
Rp244
(dp245
g7
g1
(g8
g3
Ntp246
Rp247
(dp248
g12
I0
sg13
I0
sg14
I0
sbsg15
g26
sg27
(lp249
sg29
I280
sg30
I380
sg31
g32
sbag1
(g19
g3
Ntp250
Rp251
(dp252
g7
g1
(g8
g3
Ntp253
Rp254
(dp255
g12
I0
sg13
I0
sg14
I0
sbsg15
g26
sg27
(lp256
sg29
I280
sg30
I360
sg31
g32
sbag1
(g19
g3
Ntp257
Rp258
(dp259
g7
g1
(g8
g3
Ntp260
Rp261
(dp262
g12
I0
sg13
I0
sg14
I0
sbsg15
g26
sg27
(lp263
sg29
I280
sg30
I340
sg31
g32
sbag1
(g19
g3
Ntp264
Rp265
(dp266
g7
g1
(g8
g3
Ntp267
Rp268
(dp269
g12
I0
sg13
I0
sg14
I0
sbsg15
g26
sg27
(lp270
sg29
I280
sg30
I300
sg31
g32
sbag1
(g19
g3
Ntp271
Rp272
(dp273
g7
g1
(g8
g3
Ntp274
Rp275
(dp276
g12
I0
sg13
I0
sg14
I0
sbsg15
g26
sg27
(lp277
sg29
I280
sg30
I280
sg31
g32
sbag1
(g19
g3
Ntp278
Rp279
(dp280
g7
g1
(g8
g3
Ntp281
Rp282
(dp283
g12
I0
sg13
I0
sg14
I0
sbsg15
g26
sg27
(lp284
sg29
I280
sg30
I260
sg31
g32
sbag1
(g19
g3
Ntp285
Rp286
(dp287
g7
g1
(g8
g3
Ntp288
Rp289
(dp290
g12
I0
sg13
I0
sg14
I0
sbsg15
g26
sg27
(lp291
sg29
I280
sg30
I240
sg31
g32
sbag1
(g19
g3
Ntp292
Rp293
(dp294
g7
g1
(g8
g3
Ntp295
Rp296
(dp297
g12
I0
sg13
I0
sg14
I0
sbsg15
g26
sg27
(lp298
sg29
I280
sg30
I220
sg31
g32
sbag1
(g19
g3
Ntp299
Rp300
(dp301
g7
g1
(g8
g3
Ntp302
Rp303
(dp304
g12
I0
sg13
I0
sg14
I0
sbsg15
g26
sg27
(lp305
sg29
I280
sg30
I200
sg31
g32
sbag1
(g19
g3
Ntp306
Rp307
(dp308
g7
g1
(g8
g3
Ntp309
Rp310
(dp311
g12
I0
sg13
I0
sg14
I0
sbsg15
g26
sg27
(lp312
sg29
I280
sg30
I180
sg31
g32
sbag21
ag1
(g19
g3
Ntp313
Rp314
(dp315
g7
g1
(g8
g3
Ntp316
Rp317
(dp318
g12
I0
sg13
I0
sg14
I0
sbsg15
g26
sg27
(lp319
sg29
I280
sg30
I140
sg31
g32
sbag1
(g19
g3
Ntp320
Rp321
(dp322
g7
g1
(g8
g3
Ntp323
Rp324
(dp325
g12
I0
sg13
I0
sg14
I0
sbsg15
g26
sg27
(lp326
sg29
I280
sg30
I100
sg31
g32
sbag1
(g19
g3
Ntp327
Rp328
(dp329
g7
g1
(g8
g3
Ntp330
Rp331
(dp332
g12
I0
sg13
I0
sg14
I0
sbsg15
g26
sg27
(lp333
sg29
I280
sg30
I120
sg31
g32
sbag1
(g19
g3
Ntp334
Rp335
(dp336
g7
g1
(g8
g3
Ntp337
Rp338
(dp339
g12
I0
sg13
I0
sg14
I0
sbsg15
g26
sg27
(lp340
sg29
I280
sg30
I80
sg31
g32
sbag1
(g19
g3
Ntp341
Rp342
(dp343
g7
g1
(g8
g3
Ntp344
Rp345
(dp346
g12
I0
sg13
I0
sg14
I0
sbsg15
g26
sg27
(lp347
sg29
I280
sg30
I20
sg31
g32
sbag1
(g19
g3
Ntp348
Rp349
(dp350
g7
g1
(g8
g3
Ntp351
Rp352
(dp353
g12
I0
sg13
I0
sg14
I0
sbsg15
g26
sg27
(lp354
sg29
I280
sg30
I0
sg31
g32
sba.